; ModuleID = '52/4689.c'
source_filename = "52/4689.c"
target datalayout = "e-m:e-p270:32:32-p271:32:32-p272:64:64-i64:64-f80:128-n8:16:32:64-S128"
target triple = "x86_64-pc-linux-gnu"

@.str = private unnamed_addr constant [6 x i8] c"%d %d\00", align 1
@.str.1 = private unnamed_addr constant [3 x i8] c"%d\00", align 1
@.str.2 = private unnamed_addr constant [4 x i8] c"%d \00", align 1

; Function Attrs: noinline nounwind uwtable
define dso_local void @change(i32 %0, i32 %1, i32* %2) #0 {
  %4 = alloca i32, align 4
  %5 = alloca i32, align 4
  %6 = alloca i32*, align 8
  %7 = alloca [100 x i32], align 16
  %8 = alloca i32, align 4
  store i32 %0, i32* %4, align 4
  store i32 %1, i32* %5, align 4
  store i32* %2, i32** %6, align 8
  store i32 0, i32* %8, align 4
  br label %9

9:                                                ; preds = %22, %3
  %10 = load i32, i32* %8, align 4
  %11 = load i32, i32* %4, align 4
  %12 = icmp slt i32 %10, %11
  br i1 %12, label %13, label %25

13:                                               ; preds = %9
  %14 = load i32*, i32** %6, align 8
  %15 = load i32, i32* %8, align 4
  %16 = sext i32 %15 to i64
  %17 = getelementptr inbounds i32, i32* %14, i64 %16
  %18 = load i32, i32* %17, align 4
  %19 = load i32, i32* %8, align 4
  %20 = sext i32 %19 to i64
  %21 = getelementptr inbounds [100 x i32], [100 x i32]* %7, i64 0, i64 %20
  store i32 %18, i32* %21, align 4
  br label %22

22:                                               ; preds = %13
  %23 = load i32, i32* %8, align 4
  %24 = add nsw i32 %23, 1
  store i32 %24, i32* %8, align 4
  br label %9

25:                                               ; preds = %9
  %26 = load i32, i32* %4, align 4
  %27 = load i32, i32* %5, align 4
  %28 = sub nsw i32 %26, %27
  store i32 %28, i32* %8, align 4
  br label %29

29:                                               ; preds = %47, %25
  %30 = load i32, i32* %8, align 4
  %31 = load i32, i32* %4, align 4
  %32 = icmp slt i32 %30, %31
  br i1 %32, label %33, label %50

33:                                               ; preds = %29
  %34 = load i32*, i32** %6, align 8
  %35 = load i32, i32* %8, align 4
  %36 = sext i32 %35 to i64
  %37 = getelementptr inbounds i32, i32* %34, i64 %36
  %38 = load i32, i32* %37, align 4
  %39 = load i32*, i32** %6, align 8
  %40 = load i32, i32* %8, align 4
  %41 = load i32, i32* %4, align 4
  %42 = sub nsw i32 %40, %41
  %43 = load i32, i32* %5, align 4
  %44 = add nsw i32 %42, %43
  %45 = sext i32 %44 to i64
  %46 = getelementptr inbounds i32, i32* %39, i64 %45
  store i32 %38, i32* %46, align 4
  br label %47

47:                                               ; preds = %33
  %48 = load i32, i32* %8, align 4
  %49 = add nsw i32 %48, 1
  store i32 %49, i32* %8, align 4
  br label %29

50:                                               ; preds = %29
  %51 = load i32, i32* %5, align 4
  store i32 %51, i32* %8, align 4
  br label %52

52:                                               ; preds = %67, %50
  %53 = load i32, i32* %8, align 4
  %54 = load i32, i32* %4, align 4
  %55 = icmp slt i32 %53, %54
  br i1 %55, label %56, label %70

56:                                               ; preds = %52
  %57 = load i32, i32* %8, align 4
  %58 = load i32, i32* %5, align 4
  %59 = sub nsw i32 %57, %58
  %60 = sext i32 %59 to i64
  %61 = getelementptr inbounds [100 x i32], [100 x i32]* %7, i64 0, i64 %60
  %62 = load i32, i32* %61, align 4
  %63 = load i32*, i32** %6, align 8
  %64 = load i32, i32* %8, align 4
  %65 = sext i32 %64 to i64
  %66 = getelementptr inbounds i32, i32* %63, i64 %65
  store i32 %62, i32* %66, align 4
  br label %67

67:                                               ; preds = %56
  %68 = load i32, i32* %8, align 4
  %69 = add nsw i32 %68, 1
  store i32 %69, i32* %8, align 4
  br label %52

70:                                               ; preds = %52
  ret void
}

; Function Attrs: noinline nounwind uwtable
define dso_local i32 @main() #0 {
  %1 = alloca i32, align 4
  %2 = alloca i32, align 4
  %3 = alloca i32, align 4
  %4 = alloca i32, align 4
  %5 = alloca [100 x i32], align 16
  store i32 0, i32* %1, align 4
  %6 = call i32 (i8*, ...) @__isoc99_scanf(i8* getelementptr inbounds ([6 x i8], [6 x i8]* @.str, i64 0, i64 0), i32* %2, i32* %3)
  %7 = call i32 @getchar()
  store i32 0, i32* %4, align 4
  br label %8

8:                                                ; preds = %17, %0
  %9 = load i32, i32* %4, align 4
  %10 = load i32, i32* %2, align 4
  %11 = icmp slt i32 %9, %10
  br i1 %11, label %12, label %20

12:                                               ; preds = %8
  %13 = load i32, i32* %4, align 4
  %14 = sext i32 %13 to i64
  %15 = getelementptr inbounds [100 x i32], [100 x i32]* %5, i64 0, i64 %14
  %16 = call i32 (i8*, ...) @__isoc99_scanf(i8* getelementptr inbounds ([3 x i8], [3 x i8]* @.str.1, i64 0, i64 0), i32* %15)
  br label %17

17:                                               ; preds = %12
  %18 = load i32, i32* %4, align 4
  %19 = add nsw i32 %18, 1
  store i32 %19, i32* %4, align 4
  br label %8

20:                                               ; preds = %8
  %21 = load i32, i32* %2, align 4
  %22 = load i32, i32* %3, align 4
  %23 = getelementptr inbounds [100 x i32], [100 x i32]* %5, i64 0, i64 0
  call void @change(i32 %21, i32 %22, i32* %23)
  store i32 0, i32* %4, align 4
  br label %24

24:                                               ; preds = %35, %20
  %25 = load i32, i32* %4, align 4
  %26 = load i32, i32* %2, align 4
  %27 = sub nsw i32 %26, 1
  %28 = icmp slt i32 %25, %27
  br i1 %28, label %29, label %38

29:                                               ; preds = %24
  %30 = load i32, i32* %4, align 4
  %31 = sext i32 %30 to i64
  %32 = getelementptr inbounds [100 x i32], [100 x i32]* %5, i64 0, i64 %31
  %33 = load i32, i32* %32, align 4
  %34 = call i32 (i8*, ...) @printf(i8* getelementptr inbounds ([4 x i8], [4 x i8]* @.str.2, i64 0, i64 0), i32 %33)
  br label %35

35:                                               ; preds = %29
  %36 = load i32, i32* %4, align 4
  %37 = add nsw i32 %36, 1
  store i32 %37, i32* %4, align 4
  br label %24

38:                                               ; preds = %24
  %39 = load i32, i32* %2, align 4
  %40 = sub nsw i32 %39, 1
  %41 = sext i32 %40 to i64
  %42 = getelementptr inbounds [100 x i32], [100 x i32]* %5, i64 0, i64 %41
  %43 = load i32, i32* %42, align 4
  %44 = call i32 (i8*, ...) @printf(i8* getelementptr inbounds ([3 x i8], [3 x i8]* @.str.1, i64 0, i64 0), i32 %43)
  ret i32 0
}

declare dso_local i32 @__isoc99_scanf(i8*, ...) #1

declare dso_local i32 @getchar() #1

declare dso_local i32 @printf(i8*, ...) #1


!llvm.module.flags = !{!0}
!llvm.ident = !{!1}

!0 = !{i32 1, !"wchar_size", i32 4}
!1 = !{!"clang version 10.0.0-4ubuntu1 "}
